; Function Attrs: mustprogress uwtable
define hidden noundef ptr @_ZN7datalog20karr_relation_plugin10mk_join_fnERKNS_13relation_baseES3_jPKjS5_(ptr noundef nonnull readnone align 8 dereferenceable(184) %this, ptr noundef nonnull align 8 dereferenceable(28) %t1, ptr noundef nonnull align 8 dereferenceable(28) %t2, i32 noundef %col_cnt, ptr noundef %cols1, ptr noundef %cols2) unnamed_addr #3 align 2 {
entry:
  %m_plugin.i.i = getelementptr inbounds i8, ptr %t1, i64 8
  %0 = load ptr, ptr %m_plugin.i.i, align 8
  %cmp.i = icmp eq ptr %0, %this
  %m_plugin.i.i3 = getelementptr inbounds i8, ptr %t2, i64 8
  %1 = load ptr, ptr %m_plugin.i.i3, align 8
  %cmp.i4 = icmp eq ptr %1, %this
  %or.cond = select i1 %cmp.i, i1 %cmp.i4, i1 false
  br i1 %or.cond, label %if.end, label %return

if.end:                                           ; preds = %entry
  %call3 = tail call noalias noundef ptr @_ZN6memory8allocateEm(i64 noundef 32)
  %m_signature.i = getelementptr inbounds i8, ptr %t1, i64 16
  %m_signature.i5 = getelementptr inbounds i8, ptr %t2, i64 16
  tail call void @_ZN7datalog17tr_infrastructureINS_15relation_traitsEE18convenient_join_fnC2ERKNS_18relation_signatureES6_jPKjS8_(ptr noundef nonnull align 8 dereferenceable(32) %call3, ptr noundef nonnull align 8 dereferenceable(8) %m_signature.i, ptr noundef nonnull align 8 dereferenceable(8) %m_signature.i5, i32 noundef %col_cnt, ptr noundef %cols1, ptr noundef %cols2)
  store ptr getelementptr inbounds ({ [5 x ptr] }, ptr @_ZTVN7datalog20karr_relation_plugin7join_fnE, i64 0, i32 0, i64 2), ptr %call3, align 8
  br label %return

return:                                           ; preds = %entry, %if.end
  %retval.0 = phi ptr [ %call3, %if.end ], [ null, %entry ]
  ret ptr %retval.0
}